target datalayout = "e-m:e-p270:32:32-p271:32:32-p272:64:64-i64:64-i128:128-f80:128-n8:16:32:64-S128"
target triple = "x86_64-unknown-linux-gnu"

%"struct.net::QuicCompressedCertsCache::UncompressedCerts" = type { %class.scoped_refptr, ptr, ptr }
%class.scoped_refptr = type { ptr }
%"class.base::subtle::RefCountedBase" = type { i32 }

; Function Attrs: mustprogress nounwind uwtable
define linkonce_odr dso_local void @_ZNK4base6subtle14RefCountedBase6AddRefEv(ptr noundef nonnull align 4 dereferenceable(4) %this) #1 comdat align 2 {
entry:
  %this.addr = alloca ptr, align 8
  store ptr %this, ptr %this.addr, align 8
  %this1 = load ptr, ptr %this.addr, align 8
  %ref_count_ = getelementptr inbounds %"class.base::subtle::RefCountedBase", ptr %this1, i32 0, i32 0
  %0 = load i32, ptr %ref_count_, align 4
  %inc = add nsw i32 %0, 1
  store i32 %inc, ptr %ref_count_, align 4
  ret void
}

; Function Attrs: mustprogress uwtable
define linkonce_odr dso_local void @_ZNK4base10RefCountedIN3net11ProofSource5ChainEE6AddRefEv(ptr noundef nonnull align 4 dereferenceable(4) %this) #0 comdat align 2 {
entry:
  %this.addr = alloca ptr, align 8
  store ptr %this, ptr %this.addr, align 8
  %this1 = load ptr, ptr %this.addr, align 8
  call void @_ZNK4base6subtle14RefCountedBase6AddRefEv(ptr noundef nonnull align 4 dereferenceable(4) %this1)
  ret void
}

; Function Attrs: mustprogress uwtable
define linkonce_odr dso_local void @_ZN13scoped_refptrIN3net11ProofSource5ChainEE6AddRefEPS2_(ptr noundef %ptr) #0 comdat align 2 {
entry:
  %ptr.addr = alloca ptr, align 8
  store ptr %ptr, ptr %ptr.addr, align 8
  %0 = load ptr, ptr %ptr.addr, align 8
  %add.ptr = getelementptr inbounds i8, ptr %0, i64 8
  call void @_ZNK4base10RefCountedIN3net11ProofSource5ChainEE6AddRefEv(ptr noundef nonnull align 4 dereferenceable(4) %add.ptr)
  ret void
}

; Function Attrs: mustprogress uwtable
define linkonce_odr dso_local void @_ZN13scoped_refptrIN3net11ProofSource5ChainEEC2ERKS3_(ptr noundef nonnull align 8 dereferenceable(8) %this, ptr noundef nonnull align 8 dereferenceable(8) %r) unnamed_addr #0 comdat align 2 {
entry:
  %this.addr = alloca ptr, align 8
  %r.addr = alloca ptr, align 8
  store ptr %this, ptr %this.addr, align 8
  store ptr %r, ptr %r.addr, align 8
  %this1 = load ptr, ptr %this.addr, align 8
  %ptr_ = getelementptr inbounds %class.scoped_refptr, ptr %this1, i32 0, i32 0
  %0 = load ptr, ptr %r.addr, align 8
  %ptr_2 = getelementptr inbounds %class.scoped_refptr, ptr %0, i32 0, i32 0
  %1 = load ptr, ptr %ptr_2, align 8
  store ptr %1, ptr %ptr_, align 8
  %ptr_3 = getelementptr inbounds %class.scoped_refptr, ptr %this1, i32 0, i32 0
  %2 = load ptr, ptr %ptr_3, align 8
  %tobool = icmp ne ptr %2, null
  br i1 %tobool, label %if.then, label %if.end

if.then:                                          ; preds = %entry
  %ptr_4 = getelementptr inbounds %class.scoped_refptr, ptr %this1, i32 0, i32 0
  %3 = load ptr, ptr %ptr_4, align 8
  call void @_ZN13scoped_refptrIN3net11ProofSource5ChainEE6AddRefEPS2_(ptr noundef %3)
  br label %if.end

if.end:                                           ; preds = %if.then, %entry
  ret void
}

; Function Attrs: mustprogress uwtable
define dso_local void @_ZN3net24QuicCompressedCertsCache17UncompressedCertsC2ERK13scoped_refptrINS_11ProofSource5ChainEEPKNSt7__cxx1112basic_stringIcSt11char_traitsIcESaIcEEESF_(ptr noundef nonnull align 8 dereferenceable(24) %this, ptr noundef nonnull align 8 dereferenceable(8) %chain, ptr noundef %client_common_set_hashes, ptr noundef %client_cached_cert_hashes) unnamed_addr #0 align 2 {
entry:
  %this.addr = alloca ptr, align 8
  %chain.addr = alloca ptr, align 8
  %client_common_set_hashes.addr = alloca ptr, align 8
  %client_cached_cert_hashes.addr = alloca ptr, align 8
  store ptr %this, ptr %this.addr, align 8
  store ptr %chain, ptr %chain.addr, align 8
  store ptr %client_common_set_hashes, ptr %client_common_set_hashes.addr, align 8
  store ptr %client_cached_cert_hashes, ptr %client_cached_cert_hashes.addr, align 8
  %this1 = load ptr, ptr %this.addr, align 8
  %chain2 = getelementptr inbounds %"struct.net::QuicCompressedCertsCache::UncompressedCerts", ptr %this1, i32 0, i32 0
  %0 = load ptr, ptr %chain.addr, align 8
  call void @_ZN13scoped_refptrIN3net11ProofSource5ChainEEC2ERKS3_(ptr noundef nonnull align 8 dereferenceable(8) %chain2, ptr noundef nonnull align 8 dereferenceable(8) %0)
  %client_common_set_hashes3 = getelementptr inbounds %"struct.net::QuicCompressedCertsCache::UncompressedCerts", ptr %this1, i32 0, i32 1
  %1 = load ptr, ptr %client_common_set_hashes.addr, align 8
  store ptr %1, ptr %client_common_set_hashes3, align 8
  %client_cached_cert_hashes4 = getelementptr inbounds %"struct.net::QuicCompressedCertsCache::UncompressedCerts", ptr %this1, i32 0, i32 2
  %2 = load ptr, ptr %client_cached_cert_hashes.addr, align 8
  store ptr %2, ptr %client_cached_cert_hashes4, align 8
  ret void
}