; Function Attrs: mustprogress nofree norecurse nosync nounwind willreturn memory(readwrite, inaccessiblemem: none) uwtable
define dso_local void @_ZN3net24QuicCompressedCertsCache17UncompressedCertsC2ERK13scoped_refptrINS_11ProofSource5ChainEEPKNSt7__cxx1112basic_stringIcSt11char_traitsIcESaIcEEESF_(ptr nocapture noundef nonnull writeonly align 8 dereferenceable(24) %this, ptr nocapture noundef nonnull readonly align 8 dereferenceable(8) %chain, ptr noundef %client_common_set_hashes, ptr noundef %client_cached_cert_hashes) unnamed_addr #1 align 2 {
entry:
  %0 = load ptr, ptr %chain, align 8
  store ptr %0, ptr %this, align 8
  %tobool.not.i = icmp eq ptr %0, null
  br i1 %tobool.not.i, label %_ZN13scoped_refptrIN3net11ProofSource5ChainEEC2ERKS3_.exit, label %if.then.i

if.then.i:                                        ; preds = %entry
  %add.ptr.i.i = getelementptr inbounds i8, ptr %0, i64 8
  %1 = load i32, ptr %add.ptr.i.i, align 4
  %inc.i.i.i.i = add nsw i32 %1, 1
  store i32 %inc.i.i.i.i, ptr %add.ptr.i.i, align 4
  br label %_ZN13scoped_refptrIN3net11ProofSource5ChainEEC2ERKS3_.exit

_ZN13scoped_refptrIN3net11ProofSource5ChainEEC2ERKS3_.exit: ; preds = %entry, %if.then.i
  %client_common_set_hashes3 = getelementptr inbounds i8, ptr %this, i64 8
  store ptr %client_common_set_hashes, ptr %client_common_set_hashes3, align 8
  %client_cached_cert_hashes4 = getelementptr inbounds i8, ptr %this, i64 16
  store ptr %client_cached_cert_hashes, ptr %client_cached_cert_hashes4, align 8
  ret void
}